target datalayout = "e-m:e-p270:32:32-p271:32:32-p272:64:64-i64:64-i128:128-f80:128-n8:16:32:64-S128"
target triple = "x86_64-pc-linux-gnu"

%struct.AVFilterContext = type { ptr, ptr, ptr, ptr, ptr, i32, ptr, ptr, i32, ptr, ptr, i32, i32, ptr, ptr, ptr, ptr, i32, ptr, i32, i32 }
%struct.ShuffleFramesContext = type { ptr, ptr, ptr, ptr, ptr, i32, i32 }
%struct.AVFilterLink = type { ptr, ptr, ptr, ptr, i32, i32, i32, i32, %struct.AVRational, i32, i32, i32, %struct.AVChannelLayout, %struct.AVRational, ptr, i32, %struct.AVFilterFormatsConfig, %struct.AVFilterFormatsConfig }
%struct.AVChannelLayout = type { i32, i32, %union.anon.1, ptr }
%union.anon.1 = type { i64 }
%struct.AVRational = type { i32, i32 }
%struct.AVFilterFormatsConfig = type { ptr, ptr, ptr, ptr, ptr }
%struct.AVFrame = type { [8 x ptr], [8 x i32], ptr, i32, i32, i32, i32, i32, %struct.AVRational, i64, i64, %struct.AVRational, i32, ptr, i32, i32, [8 x ptr], ptr, i32, ptr, i32, i32, i32, i32, i32, i32, i32, i64, ptr, i32, ptr, ptr, i64, i64, i64, i64, ptr, %struct.AVChannelLayout, i64 }

; Function Attrs: nounwind uwtable
define internal i32 @filter_frame(ptr noundef %0, ptr noundef %1) #1 {
  %3 = alloca i32, align 4
  %4 = alloca ptr, align 8
  %5 = alloca ptr, align 8
  %6 = alloca ptr, align 8
  %7 = alloca ptr, align 8
  %8 = alloca i32, align 4
  %9 = alloca i32, align 4
  %10 = alloca i32, align 4
  %11 = alloca ptr, align 8
  %12 = alloca i32, align 4
  store ptr %0, ptr %4, align 8, !tbaa !41
  store ptr %1, ptr %5, align 8, !tbaa !43
  call void @llvm.lifetime.start.p0(i64 8, ptr %6) #5
  %13 = load ptr, ptr %4, align 8, !tbaa !41
  %14 = getelementptr inbounds nuw %struct.AVFilterLink, ptr %13, i32 0, i32 2
  %15 = load ptr, ptr %14, align 8, !tbaa !45
  store ptr %15, ptr %6, align 8, !tbaa !4
  call void @llvm.lifetime.start.p0(i64 8, ptr %7) #5
  %16 = load ptr, ptr %6, align 8, !tbaa !4
  %17 = getelementptr inbounds nuw %struct.AVFilterContext, ptr %16, i32 0, i32 9
  %18 = load ptr, ptr %17, align 8, !tbaa !9
  store ptr %18, ptr %7, align 8, !tbaa !22
  call void @llvm.lifetime.start.p0(i64 4, ptr %8) #5
  store i32 0, ptr %8, align 4, !tbaa !25
  %19 = load ptr, ptr %7, align 8, !tbaa !22
  %20 = getelementptr inbounds nuw %struct.ShuffleFramesContext, ptr %19, i32 0, i32 5
  %21 = load i32, ptr %20, align 8, !tbaa !39
  %22 = load ptr, ptr %7, align 8, !tbaa !22
  %23 = getelementptr inbounds nuw %struct.ShuffleFramesContext, ptr %22, i32 0, i32 6
  %24 = load i32, ptr %23, align 4, !tbaa !38
  %25 = icmp slt i32 %21, %24
  br i1 %25, label %26, label %51

26:                                               ; preds = %2
  %27 = load ptr, ptr %5, align 8, !tbaa !43
  %28 = load ptr, ptr %7, align 8, !tbaa !22
  %29 = getelementptr inbounds nuw %struct.ShuffleFramesContext, ptr %28, i32 0, i32 2
  %30 = load ptr, ptr %29, align 8, !tbaa !34
  %31 = load ptr, ptr %7, align 8, !tbaa !22
  %32 = getelementptr inbounds nuw %struct.ShuffleFramesContext, ptr %31, i32 0, i32 5
  %33 = load i32, ptr %32, align 8, !tbaa !39
  %34 = sext i32 %33 to i64
  %35 = getelementptr inbounds ptr, ptr %30, i64 %34
  store ptr %27, ptr %35, align 8, !tbaa !43
  %36 = load ptr, ptr %5, align 8, !tbaa !43
  %37 = getelementptr inbounds nuw %struct.AVFrame, ptr %36, i32 0, i32 9
  %38 = load i64, ptr %37, align 8, !tbaa !53
  %39 = load ptr, ptr %7, align 8, !tbaa !22
  %40 = getelementptr inbounds nuw %struct.ShuffleFramesContext, ptr %39, i32 0, i32 4
  %41 = load ptr, ptr %40, align 8, !tbaa !36
  %42 = load ptr, ptr %7, align 8, !tbaa !22
  %43 = getelementptr inbounds nuw %struct.ShuffleFramesContext, ptr %42, i32 0, i32 5
  %44 = load i32, ptr %43, align 8, !tbaa !39
  %45 = sext i32 %44 to i64
  %46 = getelementptr inbounds i64, ptr %41, i64 %45
  store i64 %38, ptr %46, align 8, !tbaa !59
  %47 = load ptr, ptr %7, align 8, !tbaa !22
  %48 = getelementptr inbounds nuw %struct.ShuffleFramesContext, ptr %47, i32 0, i32 5
  %49 = load i32, ptr %48, align 8, !tbaa !39
  %50 = add nsw i32 %49, 1
  store i32 %50, ptr %48, align 8, !tbaa !39
  br label %51

51:                                               ; preds = %26, %2
  %52 = load ptr, ptr %7, align 8, !tbaa !22
  %53 = getelementptr inbounds nuw %struct.ShuffleFramesContext, ptr %52, i32 0, i32 5
  %54 = load i32, ptr %53, align 8, !tbaa !39
  %55 = load ptr, ptr %7, align 8, !tbaa !22
  %56 = getelementptr inbounds nuw %struct.ShuffleFramesContext, ptr %55, i32 0, i32 6
  %57 = load i32, ptr %56, align 4, !tbaa !38
  %58 = icmp eq i32 %54, %57
  br i1 %58, label %59, label %137

59:                                               ; preds = %51
  call void @llvm.lifetime.start.p0(i64 4, ptr %9) #5
  call void @llvm.lifetime.start.p0(i64 4, ptr %10) #5
  store i32 0, ptr %9, align 4, !tbaa !25
  br label %60

60:                                               ; preds = %113, %59
  %61 = load i32, ptr %9, align 4, !tbaa !25
  %62 = load ptr, ptr %7, align 8, !tbaa !22
  %63 = getelementptr inbounds nuw %struct.ShuffleFramesContext, ptr %62, i32 0, i32 6
  %64 = load i32, ptr %63, align 4, !tbaa !38
  %65 = icmp slt i32 %61, %64
  br i1 %65, label %66, label %116

66:                                               ; preds = %60
  call void @llvm.lifetime.start.p0(i64 8, ptr %11) #5
  %67 = load ptr, ptr %7, align 8, !tbaa !22
  %68 = getelementptr inbounds nuw %struct.ShuffleFramesContext, ptr %67, i32 0, i32 3
  %69 = load ptr, ptr %68, align 8, !tbaa !35
  %70 = load i32, ptr %9, align 4, !tbaa !25
  %71 = sext i32 %70 to i64
  %72 = getelementptr inbounds i32, ptr %69, i64 %71
  %73 = load i32, ptr %72, align 4, !tbaa !25
  store i32 %73, ptr %10, align 4, !tbaa !25
  %74 = load i32, ptr %10, align 4, !tbaa !25
  %75 = icmp sge i32 %74, 0
  br i1 %75, label %76, label %105

76:                                               ; preds = %66
  %77 = load ptr, ptr %7, align 8, !tbaa !22
  %78 = getelementptr inbounds nuw %struct.ShuffleFramesContext, ptr %77, i32 0, i32 2
  %79 = load ptr, ptr %78, align 8, !tbaa !34
  %80 = load i32, ptr %10, align 4, !tbaa !25
  %81 = sext i32 %80 to i64
  %82 = getelementptr inbounds ptr, ptr %79, i64 %81
  %83 = load ptr, ptr %82, align 8, !tbaa !43
  %84 = call ptr @av_frame_clone(ptr noundef %83)
  store ptr %84, ptr %11, align 8, !tbaa !43
  %85 = load ptr, ptr %11, align 8, !tbaa !43
  %86 = icmp ne ptr %85, null
  br i1 %86, label %88, label %87

87:                                               ; preds = %76
  store i32 -12, ptr %3, align 4
  store i32 1, ptr %12, align 4
  br label %110

88:                                               ; preds = %76
  %89 = load ptr, ptr %7, align 8, !tbaa !22
  %90 = getelementptr inbounds nuw %struct.ShuffleFramesContext, ptr %89, i32 0, i32 4
  %91 = load ptr, ptr %90, align 8, !tbaa !36
  %92 = load i32, ptr %9, align 4, !tbaa !25
  %93 = sext i32 %92 to i64
  %94 = getelementptr inbounds i64, ptr %91, i64 %93
  %95 = load i64, ptr %94, align 8, !tbaa !59
  %96 = load ptr, ptr %11, align 8, !tbaa !43
  %97 = getelementptr inbounds nuw %struct.AVFrame, ptr %96, i32 0, i32 9
  store i64 %95, ptr %97, align 8, !tbaa !53
  %98 = load ptr, ptr %6, align 8, !tbaa !4
  %99 = getelementptr inbounds nuw %struct.AVFilterContext, ptr %98, i32 0, i32 7
  %100 = load ptr, ptr %99, align 8, !tbaa !60
  %101 = getelementptr inbounds ptr, ptr %100, i64 0
  %102 = load ptr, ptr %101, align 8, !tbaa !41
  %103 = load ptr, ptr %11, align 8, !tbaa !43
  %104 = call i32 @ff_filter_frame(ptr noundef %102, ptr noundef %103)
  store i32 %104, ptr %8, align 4, !tbaa !25
  br label %105

105:                                              ; preds = %88, %66
  %106 = load ptr, ptr %7, align 8, !tbaa !22
  %107 = getelementptr inbounds nuw %struct.ShuffleFramesContext, ptr %106, i32 0, i32 5
  %108 = load i32, ptr %107, align 8, !tbaa !39
  %109 = add nsw i32 %108, -1
  store i32 %109, ptr %107, align 8, !tbaa !39
  store i32 0, ptr %12, align 4
  br label %110

110:                                              ; preds = %105, %87
  call void @llvm.lifetime.end.p0(i64 8, ptr %11) #5
  %111 = load i32, ptr %12, align 4
  switch i32 %111, label %134 [
    i32 0, label %112
  ]

112:                                              ; preds = %110
  br label %113

113:                                              ; preds = %112
  %114 = load i32, ptr %9, align 4, !tbaa !25
  %115 = add nsw i32 %114, 1
  store i32 %115, ptr %9, align 4, !tbaa !25
  br label %60, !llvm.loop !61

116:                                              ; preds = %60
  store i32 0, ptr %9, align 4, !tbaa !25
  br label %117

117:                                              ; preds = %130, %116
  %118 = load i32, ptr %9, align 4, !tbaa !25
  %119 = load ptr, ptr %7, align 8, !tbaa !22
  %120 = getelementptr inbounds nuw %struct.ShuffleFramesContext, ptr %119, i32 0, i32 6
  %121 = load i32, ptr %120, align 4, !tbaa !38
  %122 = icmp slt i32 %118, %121
  br i1 %122, label %123, label %133

123:                                              ; preds = %117
  %124 = load ptr, ptr %7, align 8, !tbaa !22
  %125 = getelementptr inbounds nuw %struct.ShuffleFramesContext, ptr %124, i32 0, i32 2
  %126 = load ptr, ptr %125, align 8, !tbaa !34
  %127 = load i32, ptr %9, align 4, !tbaa !25
  %128 = sext i32 %127 to i64
  %129 = getelementptr inbounds ptr, ptr %126, i64 %128
  call void @av_frame_free(ptr noundef %129)
  br label %130

130:                                              ; preds = %123
  %131 = load i32, ptr %9, align 4, !tbaa !25
  %132 = add nsw i32 %131, 1
  store i32 %132, ptr %9, align 4, !tbaa !25
  br label %117, !llvm.loop !62

133:                                              ; preds = %117
  store i32 0, ptr %12, align 4
  br label %134

134:                                              ; preds = %133, %110
  call void @llvm.lifetime.end.p0(i64 4, ptr %10) #5
  call void @llvm.lifetime.end.p0(i64 4, ptr %9) #5
  %135 = load i32, ptr %12, align 4
  switch i32 %135, label %139 [
    i32 0, label %136
  ]

136:                                              ; preds = %134
  br label %137

137:                                              ; preds = %136, %51
  %138 = load i32, ptr %8, align 4, !tbaa !25
  store i32 %138, ptr %3, align 4
  store i32 1, ptr %12, align 4
  br label %139

139:                                              ; preds = %137, %134
  call void @llvm.lifetime.end.p0(i64 4, ptr %8) #5
  call void @llvm.lifetime.end.p0(i64 8, ptr %7) #5
  call void @llvm.lifetime.end.p0(i64 8, ptr %6) #5
  %140 = load i32, ptr %3, align 4
  ret i32 %140
}