; Function Attrs: nounwind uwtable
define internal i32 @filter_frame(ptr noundef readonly captures(none) %0, ptr noundef %1) #1 {
  %3 = getelementptr inbounds nuw i8, ptr %0, i64 16
  %4 = load ptr, ptr %3, align 8, !tbaa !37
  %5 = getelementptr inbounds nuw i8, ptr %4, i64 72
  %6 = load ptr, ptr %5, align 8, !tbaa !4
  %7 = getelementptr inbounds nuw i8, ptr %6, i64 40
  %8 = load i32, ptr %7, align 8, !tbaa !35
  %9 = getelementptr inbounds nuw i8, ptr %6, i64 44
  %10 = load i32, ptr %9, align 4, !tbaa !34
  %11 = icmp slt i32 %8, %10
  br i1 %11, label %12, label %23

12:                                               ; preds = %2
  %13 = getelementptr inbounds nuw i8, ptr %6, i64 16
  %14 = load ptr, ptr %13, align 8, !tbaa !29
  %15 = sext i32 %8 to i64
  %16 = getelementptr inbounds ptr, ptr %14, i64 %15
  store ptr %1, ptr %16, align 8, !tbaa !46
  %17 = getelementptr inbounds nuw i8, ptr %1, i64 136
  %18 = load i64, ptr %17, align 8, !tbaa !48
  %19 = getelementptr inbounds nuw i8, ptr %6, i64 32
  %20 = load ptr, ptr %19, align 8, !tbaa !31
  %21 = getelementptr inbounds i64, ptr %20, i64 %15
  store i64 %18, ptr %21, align 8, !tbaa !54
  %22 = add nsw i32 %8, 1
  store i32 %22, ptr %7, align 8, !tbaa !35
  br label %23

23:                                               ; preds = %12, %2
  %24 = phi i32 [ %22, %12 ], [ %8, %2 ]
  %25 = icmp eq i32 %24, %10
  %.not4855 = icmp sgt i32 %10, 0
  %or.cond = and i1 %25, %.not4855
  br i1 %or.cond, label %.lr.ph, label %.loopexit

.lr.ph:                                           ; preds = %23
  %26 = getelementptr inbounds nuw i8, ptr %6, i64 24
  %27 = getelementptr inbounds nuw i8, ptr %6, i64 16
  %28 = getelementptr inbounds nuw i8, ptr %6, i64 32
  %29 = getelementptr inbounds nuw i8, ptr %4, i64 56
  br label %32

.preheader:                                       ; preds = %53
  %30 = icmp sgt i32 %54, 0
  br i1 %30, label %.lr.ph59, label %.loopexit

.lr.ph59:                                         ; preds = %.preheader
  %31 = getelementptr inbounds nuw i8, ptr %6, i64 16
  br label %58

32:                                               ; preds = %.lr.ph, %53
  %33 = phi i32 [ %10, %.lr.ph ], [ %54, %53 ]
  %34 = phi i32 [ %10, %.lr.ph ], [ %56, %53 ]
  %indvars.iv = phi i64 [ 0, %.lr.ph ], [ %indvars.iv.next, %53 ]
  %.14057 = phi i32 [ 0, %.lr.ph ], [ %.241, %53 ]
  %35 = load ptr, ptr %26, align 8, !tbaa !30
  %36 = getelementptr inbounds nuw i32, ptr %35, i64 %indvars.iv
  %37 = load i32, ptr %36, align 4, !tbaa !33
  %38 = icmp sgt i32 %37, -1
  br i1 %38, label %39, label %53

39:                                               ; preds = %32
  %40 = load ptr, ptr %27, align 8, !tbaa !29
  %41 = zext nneg i32 %37 to i64
  %42 = getelementptr inbounds nuw ptr, ptr %40, i64 %41
  %43 = load ptr, ptr %42, align 8, !tbaa !46
  %44 = tail call ptr @av_frame_clone(ptr noundef %43) #5
  %.not = icmp eq ptr %44, null
  br i1 %.not, label %.loopexit, label %45

45:                                               ; preds = %39
  %46 = load ptr, ptr %28, align 8, !tbaa !31
  %47 = getelementptr inbounds nuw i64, ptr %46, i64 %indvars.iv
  %48 = load i64, ptr %47, align 8, !tbaa !54
  %49 = getelementptr inbounds nuw i8, ptr %44, i64 136
  store i64 %48, ptr %49, align 8, !tbaa !48
  %50 = load ptr, ptr %29, align 8, !tbaa !55
  %51 = load ptr, ptr %50, align 8, !tbaa !56
  %52 = tail call i32 @ff_filter_frame(ptr noundef %51, ptr noundef nonnull %44) #5
  %.pre = load i32, ptr %7, align 8, !tbaa !35
  %.pre65 = load i32, ptr %9, align 4, !tbaa !34
  br label %53

53:                                               ; preds = %32, %45
  %54 = phi i32 [ %.pre65, %45 ], [ %33, %32 ]
  %55 = phi i32 [ %.pre, %45 ], [ %34, %32 ]
  %.241 = phi i32 [ %52, %45 ], [ %.14057, %32 ]
  %56 = add nsw i32 %55, -1
  store i32 %56, ptr %7, align 8, !tbaa !35
  %indvars.iv.next = add nuw nsw i64 %indvars.iv, 1
  %57 = sext i32 %54 to i64
  %.not48 = icmp slt i64 %indvars.iv.next, %57
  br i1 %.not48, label %32, label %.preheader, !llvm.loop !58

58:                                               ; preds = %.lr.ph59, %58
  %indvars.iv62 = phi i64 [ 0, %.lr.ph59 ], [ %indvars.iv.next63, %58 ]
  %59 = load ptr, ptr %31, align 8, !tbaa !29
  %60 = getelementptr inbounds nuw ptr, ptr %59, i64 %indvars.iv62
  tail call void @av_frame_free(ptr noundef %60) #5
  %indvars.iv.next63 = add nuw nsw i64 %indvars.iv62, 1
  %61 = load i32, ptr %9, align 4, !tbaa !34
  %62 = sext i32 %61 to i64
  %63 = icmp slt i64 %indvars.iv.next63, %62
  br i1 %63, label %58, label %.loopexit, !llvm.loop !59

.loopexit:                                        ; preds = %39, %58, %.preheader, %23
  %.3 = phi i32 [ 0, %23 ], [ %.241, %.preheader ], [ %.241, %58 ], [ -12, %39 ]
  ret i32 %.3
}